; Function Attrs: nounwind uwtable
define internal range(i32 -2147483648, 1) i32 @process_command(ptr noundef %0, ptr noundef %1, ptr noundef %2, ptr noundef %3, i32 noundef %4, i32 noundef %5) #1 {
  %7 = tail call i32 @ff_filter_process_command(ptr noundef %0, ptr noundef %1, ptr noundef %2, ptr noundef %3, i32 noundef %4, i32 noundef %5) #5
  %8 = icmp slt i32 %7, 0
  br i1 %8, label %config_input.exit, label %9

9:                                                ; preds = %6
  %10 = getelementptr inbounds nuw i8, ptr %0, i64 32
  %11 = load ptr, ptr %10, align 8, !tbaa !20
  %12 = load ptr, ptr %11, align 8, !tbaa !21
  %13 = getelementptr inbounds nuw i8, ptr %12, i64 16
  %14 = load ptr, ptr %13, align 8, !tbaa !23
  %15 = getelementptr inbounds nuw i8, ptr %14, i64 72
  %16 = load ptr, ptr %15, align 8, !tbaa !4
  %17 = getelementptr inbounds nuw i8, ptr %12, i64 64
  %18 = load i32, ptr %17, align 8, !tbaa !32
  %19 = add nsw i32 %18, 9
  %20 = sdiv i32 %19, 10
  %21 = add nsw i32 %20, 1
  %22 = and i32 %21, -2
  %23 = getelementptr inbounds nuw i8, ptr %16, i64 168
  store i32 %22, ptr %23, align 8, !tbaa !33
  %24 = getelementptr inbounds nuw i8, ptr %16, i64 160
  %25 = load ptr, ptr %24, align 8, !tbaa !36
  %.not.i = icmp eq ptr %25, null
  br i1 %.not.i, label %26, label %.thread.i

26:                                               ; preds = %9
  %27 = sext i32 %22 to i64
  %28 = tail call noalias ptr @av_calloc(i64 noundef %27, i64 noundef 8) #5
  store ptr %28, ptr %24, align 8, !tbaa !36
  %.not14.i = icmp eq ptr %28, null
  br i1 %.not14.i, label %config_input.exit, label %.thread.i

.thread.i:                                        ; preds = %26, %9
  %29 = getelementptr inbounds nuw i8, ptr %16, i64 128
  %30 = load double, ptr %29, align 8, !tbaa !37
  %31 = tail call nsz double @llvm.atan.f64(double %30)
  %32 = fdiv nsz double 1.000000e+00, %31
  %33 = getelementptr inbounds nuw i8, ptr %16, i64 136
  store double %32, ptr %33, align 8, !tbaa !38
  %34 = getelementptr inbounds nuw i8, ptr %16, i64 72
  %35 = load double, ptr %34, align 8, !tbaa !39
  %36 = fdiv nsz double %35, 1.800000e+02
  %37 = fmul nsz double %36, 0x400921FB54442D18
  %38 = tail call nsz double @llvm.cos.f64(double %37)
  %39 = getelementptr inbounds nuw i8, ptr %16, i64 120
  store double %38, ptr %39, align 8, !tbaa !40
  %40 = tail call nsz double @llvm.sin.f64(double %37)
  %41 = getelementptr inbounds nuw i8, ptr %16, i64 112
  store double %40, ptr %41, align 8, !tbaa !41
  br label %config_input.exit

config_input.exit:                                ; preds = %.thread.i, %26, %6
  %.0 = phi i32 [ %7, %6 ], [ 0, %.thread.i ], [ -12, %26 ]
  ret i32 %.0
}